; Function Attrs: mustprogress uwtable
define void @_ZNK7mitsuba5Class11unserializeEPNS_6StreamE(ptr dead_on_unwind noalias nocapture writable writeonly sret(%"class.mitsuba::ref") align 8 %0, ptr noundef nonnull align 16 dereferenceable(208) %1, ptr noundef %2) local_unnamed_addr #0 align 2 personality ptr @__gxx_personality_v0 {
  %4 = alloca ptr, align 8
  %5 = alloca %"class.std::__1::basic_string", align 8
  %6 = getelementptr inbounds i8, ptr %1, i64 192
  %7 = load ptr, ptr %6, align 16
  %.not = icmp eq ptr %7, null
  br i1 %.not, label %8, label %_ZNKSt3__18functionIFPN7mitsuba6ObjectEPNS1_6StreamEEEclES5_.exit

8:                                                ; preds = %3
  %9 = load ptr, ptr @_ZN7mitsuba7m_classE, align 8
  call void @_ZN10tinyformat6formatIJNSt3__112basic_stringIcNS1_11char_traitsIcEENS1_9allocatorIcEEEEEEES7_PKcDpRKT_(ptr dead_on_unwind nonnull writable sret(%"class.std::__1::basic_string") align 8 %5, ptr noundef nonnull @.str.9, ptr noundef nonnull align 8 dereferenceable(24) %1)
  invoke void @_ZN7mitsuba6detail5ThrowENS_8LogLevelEPKNS_5ClassEPKciRKNSt3__112basic_stringIcNS7_11char_traitsIcEENS7_9allocatorIcEEEE(i32 noundef 400, ptr noundef %9, ptr noundef nonnull @.str.7, i32 noundef 105, ptr noundef nonnull align 8 dereferenceable(24) %5) #18
          to label %10 unwind label %11

10:                                               ; preds = %8
  unreachable

11:                                               ; preds = %8
  %12 = landingpad { ptr, i32 }
          cleanup
  call void @_ZNSt3__112basic_stringIcNS_11char_traitsIcEENS_9allocatorIcEEED1Ev(ptr noundef nonnull align 8 dereferenceable(24) %5) #17
  resume { ptr, i32 } %12

_ZNKSt3__18functionIFPN7mitsuba6ObjectEPNS1_6StreamEEEclES5_.exit: ; preds = %3
  call void @llvm.lifetime.start.p0(i64 8, ptr nonnull %4)
  store ptr %2, ptr %4, align 8
  %13 = load ptr, ptr %7, align 8
  %14 = getelementptr inbounds i8, ptr %13, i64 48
  %15 = load ptr, ptr %14, align 8
  %16 = call noundef ptr %15(ptr noundef nonnull align 8 dereferenceable(8) %7, ptr noundef nonnull align 8 dereferenceable(8) %4)
  call void @llvm.lifetime.end.p0(i64 8, ptr nonnull %4)
  store ptr %16, ptr %0, align 8
  %.not.i = icmp eq ptr %16, null
  br i1 %.not.i, label %_ZN7mitsuba3refINS_6ObjectEEC2IS1_EEPS1_.exit, label %17

17:                                               ; preds = %_ZNKSt3__18functionIFPN7mitsuba6ObjectEPNS1_6StreamEEEclES5_.exit
  %18 = getelementptr inbounds i8, ptr %16, i64 8
  %19 = atomicrmw add ptr %18, i32 1 seq_cst, align 4
  br label %_ZN7mitsuba3refINS_6ObjectEEC2IS1_EEPS1_.exit

_ZN7mitsuba3refINS_6ObjectEEC2IS1_EEPS1_.exit:    ; preds = %_ZNKSt3__18functionIFPN7mitsuba6ObjectEPNS1_6StreamEEEclES5_.exit, %17
  ret void
}